target datalayout = "e-m:e-p270:32:32-p271:32:32-p272:64:64-i64:64-i128:128-f80:128-n8:16:32:64-S128"
target triple = "x86_64-pc-linux-gnu"

%struct.buf_mem_st = type { i64, ptr, i64, i64 }

@.str = private unnamed_addr constant [34 x i8] c"../openssl/crypto/asn1/a_d2i_fp.c\00", align 1
@__func__.ASN1_item_d2i_fp_ex = private unnamed_addr constant [20 x i8] c"ASN1_item_d2i_fp_ex\00", align 1

; Function Attrs: nounwind uwtable
define ptr @ASN1_item_d2i_bio_ex(ptr noundef %0, ptr noundef %1, ptr noundef %2, ptr noundef %3, ptr noundef %4) #0 {
  %6 = alloca ptr, align 8
  %7 = alloca ptr, align 8
  %8 = alloca ptr, align 8
  %9 = alloca ptr, align 8
  %10 = alloca ptr, align 8
  %11 = alloca ptr, align 8
  %12 = alloca ptr, align 8
  %13 = alloca ptr, align 8
  %14 = alloca ptr, align 8
  %15 = alloca i32, align 4
  %16 = alloca i32, align 4
  store ptr %0, ptr %7, align 8, !tbaa !26
  store ptr %1, ptr %8, align 8, !tbaa !9
  store ptr %2, ptr %9, align 8, !tbaa !3
  store ptr %3, ptr %10, align 8, !tbaa !28
  store ptr %4, ptr %11, align 8, !tbaa !19
  call void @llvm.lifetime.start.p0(i64 8, ptr %12) #4
  store ptr null, ptr %12, align 8, !tbaa !11
  call void @llvm.lifetime.start.p0(i64 8, ptr %13) #4
  call void @llvm.lifetime.start.p0(i64 8, ptr %14) #4
  store ptr null, ptr %14, align 8, !tbaa !3
  call void @llvm.lifetime.start.p0(i64 4, ptr %15) #4
  %17 = load ptr, ptr %8, align 8, !tbaa !9
  %18 = icmp eq ptr %17, null
  br i1 %18, label %19, label %20

19:                                               ; preds = %5
  store ptr null, ptr %6, align 8
  store i32 1, ptr %16, align 4
  br label %40

20:                                               ; preds = %5
  %21 = load ptr, ptr %8, align 8, !tbaa !9
  %22 = call i32 @asn1_d2i_read_bio(ptr noundef %21, ptr noundef %12)
  store i32 %22, ptr %15, align 4, !tbaa !13
  %23 = load i32, ptr %15, align 4, !tbaa !13
  %24 = icmp slt i32 %23, 0
  br i1 %24, label %25, label %26

25:                                               ; preds = %20
  br label %37

26:                                               ; preds = %20
  %27 = load ptr, ptr %12, align 8, !tbaa !11
  %28 = getelementptr inbounds nuw %struct.buf_mem_st, ptr %27, i32 0, i32 1
  %29 = load ptr, ptr %28, align 8, !tbaa !15
  store ptr %29, ptr %13, align 8, !tbaa !19
  %30 = load ptr, ptr %9, align 8, !tbaa !3
  %31 = load i32, ptr %15, align 4, !tbaa !13
  %32 = sext i32 %31 to i64
  %33 = load ptr, ptr %7, align 8, !tbaa !26
  %34 = load ptr, ptr %10, align 8, !tbaa !28
  %35 = load ptr, ptr %11, align 8, !tbaa !19
  %36 = call ptr @ASN1_item_d2i_ex(ptr noundef %30, ptr noundef %13, i64 noundef %32, ptr noundef %33, ptr noundef %34, ptr noundef %35)
  store ptr %36, ptr %14, align 8, !tbaa !3
  br label %37

37:                                               ; preds = %26, %25
  %38 = load ptr, ptr %12, align 8, !tbaa !11
  call void @BUF_MEM_free(ptr noundef %38)
  %39 = load ptr, ptr %14, align 8, !tbaa !3
  store ptr %39, ptr %6, align 8
  store i32 1, ptr %16, align 4
  br label %40

40:                                               ; preds = %37, %19
  call void @llvm.lifetime.end.p0(i64 4, ptr %15) #4
  call void @llvm.lifetime.end.p0(i64 8, ptr %14) #4
  call void @llvm.lifetime.end.p0(i64 8, ptr %13) #4
  call void @llvm.lifetime.end.p0(i64 8, ptr %12) #4
  %41 = load ptr, ptr %6, align 8
  ret ptr %41
}

; Function Attrs: nounwind uwtable
define ptr @ASN1_item_d2i_fp_ex(ptr noundef %0, ptr noundef %1, ptr noundef %2, ptr noundef %3, ptr noundef %4) #0 {
  %6 = alloca ptr, align 8
  %7 = alloca ptr, align 8
  %8 = alloca ptr, align 8
  %9 = alloca ptr, align 8
  %10 = alloca ptr, align 8
  %11 = alloca ptr, align 8
  %12 = alloca ptr, align 8
  %13 = alloca ptr, align 8
  %14 = alloca i32, align 4
  store ptr %0, ptr %7, align 8, !tbaa !26
  store ptr %1, ptr %8, align 8, !tbaa !7
  store ptr %2, ptr %9, align 8, !tbaa !3
  store ptr %3, ptr %10, align 8, !tbaa !28
  store ptr %4, ptr %11, align 8, !tbaa !19
  call void @llvm.lifetime.start.p0(i64 8, ptr %12) #4
  call void @llvm.lifetime.start.p0(i64 8, ptr %13) #4
  %15 = call ptr @BIO_s_file()
  %16 = call ptr @BIO_new(ptr noundef %15)
  store ptr %16, ptr %12, align 8, !tbaa !9
  %17 = icmp eq ptr %16, null
  br i1 %17, label %18, label %19

18:                                               ; preds = %5
  call void @ERR_new()
  call void @ERR_set_debug(ptr noundef @.str, i32 noundef 92, ptr noundef @__func__.ASN1_item_d2i_fp_ex)
  call void (i32, i32, ptr, ...) @ERR_set_error(i32 noundef 13, i32 noundef 524295, ptr noundef null)
  store ptr null, ptr %6, align 8
  store i32 1, ptr %14, align 4
  br label %32

19:                                               ; preds = %5
  %20 = load ptr, ptr %12, align 8, !tbaa !9
  %21 = load ptr, ptr %8, align 8, !tbaa !7
  %22 = call i64 @BIO_ctrl(ptr noundef %20, i32 noundef 106, i64 noundef 0, ptr noundef %21)
  %23 = load ptr, ptr %7, align 8, !tbaa !26
  %24 = load ptr, ptr %12, align 8, !tbaa !9
  %25 = load ptr, ptr %9, align 8, !tbaa !3
  %26 = load ptr, ptr %10, align 8, !tbaa !28
  %27 = load ptr, ptr %11, align 8, !tbaa !19
  %28 = call ptr @ASN1_item_d2i_bio_ex(ptr noundef %23, ptr noundef %24, ptr noundef %25, ptr noundef %26, ptr noundef %27)
  store ptr %28, ptr %13, align 8, !tbaa !19
  %29 = load ptr, ptr %12, align 8, !tbaa !9
  %30 = call i32 @BIO_free(ptr noundef %29)
  %31 = load ptr, ptr %13, align 8, !tbaa !19
  store ptr %31, ptr %6, align 8
  store i32 1, ptr %14, align 4
  br label %32

32:                                               ; preds = %19, %18
  call void @llvm.lifetime.end.p0(i64 8, ptr %13) #4
  call void @llvm.lifetime.end.p0(i64 8, ptr %12) #4
  %33 = load ptr, ptr %6, align 8
  ret ptr %33
}