; Function Attrs: nounwind uwtable
define ptr @ASN1_item_d2i_fp_ex(ptr noundef %0, ptr noundef %1, ptr noundef %2, ptr noundef %3, ptr noundef %4) local_unnamed_addr #0 {
  %6 = alloca ptr, align 8
  %7 = alloca ptr, align 8
  %8 = tail call ptr @BIO_s_file() #4
  %9 = tail call ptr @BIO_new(ptr noundef %8) #4
  %10 = icmp eq ptr %9, null
  br i1 %10, label %11, label %12

11:                                               ; preds = %5
  tail call void @ERR_new() #4
  tail call void @ERR_set_debug(ptr noundef nonnull @.str, i32 noundef 92, ptr noundef nonnull @__func__.ASN1_item_d2i_fp_ex) #4
  tail call void (i32, i32, ptr, ...) @ERR_set_error(i32 noundef 13, i32 noundef 524295, ptr noundef null) #4
  br label %22

12:                                               ; preds = %5
  %13 = tail call i64 @BIO_ctrl(ptr noundef nonnull %9, i32 noundef 106, i64 noundef 0, ptr noundef %1) #4
  call void @llvm.lifetime.start.p0(i64 8, ptr nonnull %6) #4
  store ptr null, ptr %6, align 8, !tbaa !3
  call void @llvm.lifetime.start.p0(i64 8, ptr nonnull %7) #4
  %14 = call i32 @asn1_d2i_read_bio(ptr noundef nonnull %9, ptr noundef nonnull %6)
  %15 = icmp slt i32 %14, 0
  %.pre.i = load ptr, ptr %6, align 8, !tbaa !3
  br i1 %15, label %ASN1_item_d2i_bio_ex.exit, label %16

16:                                               ; preds = %12
  %17 = getelementptr inbounds nuw i8, ptr %.pre.i, i64 8
  %18 = load ptr, ptr %17, align 8, !tbaa !8
  store ptr %18, ptr %7, align 8, !tbaa !12
  %19 = zext nneg i32 %14 to i64
  %20 = call ptr @ASN1_item_d2i_ex(ptr noundef %2, ptr noundef nonnull %7, i64 noundef %19, ptr noundef %0, ptr noundef %3, ptr noundef %4) #4
  br label %ASN1_item_d2i_bio_ex.exit

ASN1_item_d2i_bio_ex.exit:                        ; preds = %12, %16
  %.09.i = phi ptr [ null, %12 ], [ %20, %16 ]
  call void @BUF_MEM_free(ptr noundef %.pre.i) #4
  call void @llvm.lifetime.end.p0(i64 8, ptr nonnull %7) #4
  call void @llvm.lifetime.end.p0(i64 8, ptr nonnull %6) #4
  %21 = call i32 @BIO_free(ptr noundef nonnull %9) #4
  br label %22

22:                                               ; preds = %ASN1_item_d2i_bio_ex.exit, %11
  %.0 = phi ptr [ null, %11 ], [ %.09.i, %ASN1_item_d2i_bio_ex.exit ]
  ret ptr %.0
}